target datalayout = "e-m:e-p270:32:32-p271:32:32-p272:64:64-i64:64-i128:128-f80:128-n8:16:32:64-S128"
target triple = "x86_64-pc-linux-gnu"

%struct.RArray = type { %struct.RBasic, %union.anon }
%struct.RBasic = type { i64, i64 }
%union.anon = type { %struct.anon }
%struct.anon = type { i64, %union.anon.0, ptr }
%union.anon.0 = type { i64 }
%struct.slicebefore_arg = type { i64, i64, i64, i64 }

@.str.78 = private unnamed_addr constant [39 x i8] c"../include/ruby/internal/core/rarray.h\00", align 1

; Function Attrs: inlinehint nounwind sspstrong willreturn memory(read) uwtable
define internal i64 @RB_FL_TEST_RAW(i64 noundef %0, i64 noundef %1) #5 {
  %3 = alloca i64, align 8
  %4 = alloca i64, align 8
  store i64 %0, ptr %3, align 8, !tbaa !14
  store i64 %1, ptr %4, align 8, !tbaa !14
  %5 = load i64, ptr %3, align 8, !tbaa !14
  %6 = inttoptr i64 %5 to ptr
  %7 = getelementptr inbounds nuw %struct.RBasic, ptr %6, i32 0, i32 0
  %8 = load i64, ptr %7, align 8, !tbaa !88
  %9 = load i64, ptr %4, align 8, !tbaa !14
  %10 = and i64 %8, %9
  ret i64 %10
}

; Function Attrs: inlinehint nounwind sspstrong willreturn memory(read) uwtable
define internal zeroext i1 @RB_FL_ANY_RAW(i64 noundef %0, i64 noundef %1) #5 {
  %3 = alloca i64, align 8
  %4 = alloca i64, align 8
  store i64 %0, ptr %3, align 8, !tbaa !14
  store i64 %1, ptr %4, align 8, !tbaa !14
  %5 = load i64, ptr %3, align 8, !tbaa !14
  %6 = load i64, ptr %4, align 8, !tbaa !14
  %7 = call i64 @RB_FL_TEST_RAW(i64 noundef %5, i64 noundef %6) #24
  %8 = icmp ne i64 %7, 0
  ret i1 %8
}

; Function Attrs: inlinehint nounwind sspstrong willreturn memory(read) uwtable
define internal ptr @rb_array_const_ptr(i64 noundef %0) #5 {
  %2 = alloca ptr, align 8
  %3 = alloca i64, align 8
  store i64 %0, ptr %3, align 8, !tbaa !14
  %4 = load i64, ptr %3, align 8, !tbaa !14
  %5 = call zeroext i1 @RB_FL_ANY_RAW(i64 noundef %4, i64 noundef 8192) #24
  br i1 %5, label %6, label %11

6:                                                ; preds = %1
  %7 = load i64, ptr %3, align 8, !tbaa !14
  %8 = inttoptr i64 %7 to ptr
  %9 = getelementptr inbounds nuw %struct.RArray, ptr %8, i32 0, i32 1
  %10 = getelementptr inbounds [1 x i64], ptr %9, i64 0, i64 0
  store ptr %10, ptr %2, align 8
  br label %17

11:                                               ; preds = %1
  %12 = load i64, ptr %3, align 8, !tbaa !14
  %13 = inttoptr i64 %12 to ptr
  %14 = getelementptr inbounds nuw %struct.RArray, ptr %13, i32 0, i32 1
  %15 = getelementptr inbounds nuw %struct.anon, ptr %14, i32 0, i32 2
  %16 = load ptr, ptr %15, align 8, !tbaa !31
  store ptr %16, ptr %2, align 8
  br label %17

17:                                               ; preds = %11, %6
  %18 = load ptr, ptr %2, align 8
  ret ptr %18
}

; Function Attrs: inlinehint nounwind sspstrong uwtable
define internal i64 @rb_obj_wb_unprotect(i64 noundef %0, ptr noundef %1, i32 noundef %2) #3 {
  %4 = alloca i64, align 8
  %5 = alloca ptr, align 8
  %6 = alloca i32, align 4
  store i64 %0, ptr %4, align 8, !tbaa !14
  store ptr %1, ptr %5, align 8, !tbaa !86
  store i32 %2, ptr %6, align 4, !tbaa !7
  %7 = load i64, ptr %4, align 8, !tbaa !14
  call void @rb_gc_writebarrier_unprotect(i64 noundef %7)
  %8 = load i64, ptr %4, align 8, !tbaa !14
  ret i64 %8
}

; Function Attrs: inlinehint nounwind sspstrong willreturn memory(none) uwtable
define internal zeroext i1 @RB_TEST(i64 noundef %0) #6 {
  %2 = alloca i64, align 8
  store i64 %0, ptr %2, align 8, !tbaa !14
  %3 = load i64, ptr %2, align 8, !tbaa !14
  %4 = and i64 %3, -5
  %5 = icmp ne i64 %4, 0
  ret i1 %5
}

; Function Attrs: inlinehint nounwind sspstrong willreturn memory(none) uwtable
define internal zeroext i1 @RB_NIL_P(i64 noundef %0) #6 {
  %2 = alloca i64, align 8
  store i64 %0, ptr %2, align 8, !tbaa !14
  %3 = load i64, ptr %2, align 8, !tbaa !14
  %4 = icmp eq i64 %3, 4
  ret i1 %4
}

; Function Attrs: nounwind sspstrong uwtable
define dso_local i64 @rb_enum_values_pack(i32 noundef %0, ptr noundef %1) #0 {
  %3 = alloca i64, align 8
  %4 = alloca i32, align 4
  %5 = alloca ptr, align 8
  store i32 %0, ptr %4, align 4, !tbaa !7
  store ptr %1, ptr %5, align 8, !tbaa !11
  %6 = load i32, ptr %4, align 4, !tbaa !7
  %7 = icmp eq i32 %6, 0
  br i1 %7, label %8, label %9

8:                                                ; preds = %2
  store i64 4, ptr %3, align 8
  br label %21

9:                                                ; preds = %2
  %10 = load i32, ptr %4, align 4, !tbaa !7
  %11 = icmp eq i32 %10, 1
  br i1 %11, label %12, label %16

12:                                               ; preds = %9
  %13 = load ptr, ptr %5, align 8, !tbaa !11
  %14 = getelementptr i64, ptr %13, i64 0
  %15 = load i64, ptr %14, align 8, !tbaa !14
  store i64 %15, ptr %3, align 8
  br label %21

16:                                               ; preds = %9
  %17 = load i32, ptr %4, align 4, !tbaa !7
  %18 = sext i32 %17 to i64
  %19 = load ptr, ptr %5, align 8, !tbaa !11
  %20 = call i64 @rb_ary_new_from_values(i64 noundef %18, ptr noundef %19)
  store i64 %20, ptr %3, align 8
  br label %21

21:                                               ; preds = %16, %12, %8
  %22 = load i64, ptr %3, align 8
  ret i64 %22
}

; Function Attrs: inlinehint nounwind sspstrong uwtable
define internal ptr @RARRAY_PTR(i64 noundef %0) #3 {
  %2 = alloca i64, align 8
  %3 = alloca i64, align 8
  store i64 %0, ptr %2, align 8, !tbaa !14
  call void @llvm.lifetime.start.p0(i64 8, ptr %3) #22
  %4 = load i64, ptr %2, align 8, !tbaa !14
  %5 = call i64 @rb_obj_wb_unprotect(i64 noundef %4, ptr noundef @.str.78, i32 noundef 370)
  store i64 %5, ptr %3, align 8, !tbaa !14
  %6 = load i64, ptr %3, align 8, !tbaa !14
  %7 = call ptr @rb_array_const_ptr(i64 noundef %6) #24
  call void @llvm.lifetime.end.p0(i64 8, ptr %3) #22
  ret ptr %7
}

; Function Attrs: nounwind sspstrong uwtable
define internal i64 @slicebefore_ii(i64 noundef %0, i64 noundef %1, i32 noundef %2, ptr noundef %3, i64 noundef %4) #0 {
  %6 = alloca i64, align 8
  %7 = alloca i64, align 8
  %8 = alloca i32, align 4
  %9 = alloca ptr, align 8
  %10 = alloca i64, align 8
  %11 = alloca ptr, align 8
  %12 = alloca i64, align 8
  store i64 %0, ptr %6, align 8, !tbaa !14
  store i64 %1, ptr %7, align 8, !tbaa !14
  store i32 %2, ptr %8, align 4, !tbaa !7
  store ptr %3, ptr %9, align 8, !tbaa !11
  store i64 %4, ptr %10, align 8, !tbaa !14
  call void @llvm.lifetime.start.p0(i64 8, ptr %11) #22
  %13 = load i64, ptr %7, align 8, !tbaa !14
  %14 = call ptr @RARRAY_PTR(i64 noundef %13)
  store ptr %14, ptr %11, align 8, !tbaa !140
  call void @llvm.lifetime.start.p0(i64 8, ptr %12) #22
  br label %15

15:                                               ; preds = %5
  %16 = load i32, ptr %8, align 4, !tbaa !7
  %17 = load ptr, ptr %9, align 8, !tbaa !11
  %18 = call i64 @rb_enum_values_pack(i32 noundef %16, ptr noundef %17)
  store i64 %18, ptr %6, align 8, !tbaa !14
  br label %19

19:                                               ; preds = %15
  br label %20

20:                                               ; preds = %19
  %21 = load ptr, ptr %11, align 8, !tbaa !140
  %22 = getelementptr inbounds nuw %struct.slicebefore_arg, ptr %21, i32 0, i32 1
  %23 = load i64, ptr %22, align 8, !tbaa !144
  %24 = call zeroext i1 @RB_NIL_P(i64 noundef %23) #25
  br i1 %24, label %30, label %25

25:                                               ; preds = %20
  %26 = load ptr, ptr %11, align 8, !tbaa !140
  %27 = getelementptr inbounds nuw %struct.slicebefore_arg, ptr %26, i32 0, i32 1
  %28 = load i64, ptr %27, align 8, !tbaa !144
  %29 = call i64 @rb_funcallv(i64 noundef %28, i64 noundef 141, i32 noundef 1, ptr noundef %6)
  store i64 %29, ptr %12, align 8, !tbaa !14
  br label %35

30:                                               ; preds = %20
  %31 = load ptr, ptr %11, align 8, !tbaa !140
  %32 = getelementptr inbounds nuw %struct.slicebefore_arg, ptr %31, i32 0, i32 0
  %33 = load i64, ptr %32, align 8, !tbaa !142
  %34 = call i64 @rb_funcallv(i64 noundef %33, i64 noundef 3457, i32 noundef 1, ptr noundef %6)
  store i64 %34, ptr %12, align 8, !tbaa !14
  br label %35

35:                                               ; preds = %30, %25
  %36 = load i64, ptr %12, align 8, !tbaa !14
  %37 = call zeroext i1 @RB_TEST(i64 noundef %36) #25
  br i1 %37, label %38, label %55

38:                                               ; preds = %35
  %39 = load ptr, ptr %11, align 8, !tbaa !140
  %40 = getelementptr inbounds nuw %struct.slicebefore_arg, ptr %39, i32 0, i32 2
  %41 = load i64, ptr %40, align 8, !tbaa !145
  %42 = call zeroext i1 @RB_NIL_P(i64 noundef %41) #25
  br i1 %42, label %50, label %43

43:                                               ; preds = %38
  %44 = load ptr, ptr %11, align 8, !tbaa !140
  %45 = getelementptr inbounds nuw %struct.slicebefore_arg, ptr %44, i32 0, i32 3
  %46 = load i64, ptr %45, align 8, !tbaa !146
  %47 = load ptr, ptr %11, align 8, !tbaa !140
  %48 = getelementptr inbounds nuw %struct.slicebefore_arg, ptr %47, i32 0, i32 2
  %49 = call i64 @rb_funcallv(i64 noundef %46, i64 noundef 136, i32 noundef 1, ptr noundef %48)
  br label %50

50:                                               ; preds = %43, %38
  %51 = load i64, ptr %6, align 8, !tbaa !14
  %52 = call i64 (i64, ...) @rb_ary_new_from_args(i64 noundef 1, i64 noundef %51)
  %53 = load ptr, ptr %11, align 8, !tbaa !140
  %54 = getelementptr inbounds nuw %struct.slicebefore_arg, ptr %53, i32 0, i32 2
  store i64 %52, ptr %54, align 8, !tbaa !145
  br label %72

55:                                               ; preds = %35
  %56 = load ptr, ptr %11, align 8, !tbaa !140
  %57 = getelementptr inbounds nuw %struct.slicebefore_arg, ptr %56, i32 0, i32 2
  %58 = load i64, ptr %57, align 8, !tbaa !145
  %59 = call zeroext i1 @RB_NIL_P(i64 noundef %58) #25
  br i1 %59, label %60, label %65

60:                                               ; preds = %55
  %61 = load i64, ptr %6, align 8, !tbaa !14
  %62 = call i64 (i64, ...) @rb_ary_new_from_args(i64 noundef 1, i64 noundef %61)
  %63 = load ptr, ptr %11, align 8, !tbaa !140
  %64 = getelementptr inbounds nuw %struct.slicebefore_arg, ptr %63, i32 0, i32 2
  store i64 %62, ptr %64, align 8, !tbaa !145
  br label %71

65:                                               ; preds = %55
  %66 = load ptr, ptr %11, align 8, !tbaa !140
  %67 = getelementptr inbounds nuw %struct.slicebefore_arg, ptr %66, i32 0, i32 2
  %68 = load i64, ptr %67, align 8, !tbaa !145
  %69 = load i64, ptr %6, align 8, !tbaa !14
  %70 = call i64 @rb_ary_push(i64 noundef %68, i64 noundef %69)
  br label %71

71:                                               ; preds = %65, %60
  br label %72

72:                                               ; preds = %71, %50
  call void @llvm.lifetime.end.p0(i64 8, ptr %12) #22
  call void @llvm.lifetime.end.p0(i64 8, ptr %11) #22
  ret i64 4
}