; Function Attrs: nounwind sspstrong uwtable
define internal noundef i64 @slicebefore_ii(i64 %0, i64 noundef %1, i32 noundef %2, ptr noundef %3, i64 %4) #0 {
  %6 = alloca i64, align 8
  tail call void @rb_gc_writebarrier_unprotect(i64 noundef %1) #14
  %7 = inttoptr i64 %1 to ptr
  %8 = load i64, ptr %7, align 8, !tbaa !20
  %9 = and i64 %8, 8192
  %.not.i.i = icmp eq i64 %9, 0
  br i1 %.not.i.i, label %12, label %10

10:                                               ; preds = %5
  %11 = getelementptr inbounds nuw i8, ptr %7, i64 16
  br label %RARRAY_PTR.exit

12:                                               ; preds = %5
  %13 = getelementptr inbounds nuw i8, ptr %7, i64 32
  %14 = load ptr, ptr %13, align 8, !tbaa !22
  br label %RARRAY_PTR.exit

RARRAY_PTR.exit:                                  ; preds = %10, %12
  %.0.i.i = phi ptr [ %11, %10 ], [ %14, %12 ]
  switch i32 %2, label %17 [
    i32 0, label %rb_enum_values_pack.exit
    i32 1, label %15
  ]

15:                                               ; preds = %RARRAY_PTR.exit
  %16 = load i64, ptr %3, align 8, !tbaa !7
  br label %rb_enum_values_pack.exit

17:                                               ; preds = %RARRAY_PTR.exit
  %18 = sext i32 %2 to i64
  %19 = tail call i64 @rb_ary_new_from_values(i64 noundef %18, ptr noundef %3) #14
  br label %rb_enum_values_pack.exit

rb_enum_values_pack.exit:                         ; preds = %RARRAY_PTR.exit, %15, %17
  %.0.i = phi i64 [ %16, %15 ], [ %19, %17 ], [ 4, %RARRAY_PTR.exit ]
  store i64 %.0.i, ptr %6, align 8, !tbaa !7
  %20 = getelementptr inbounds nuw i8, ptr %.0.i.i, i64 8
  %21 = load i64, ptr %20, align 8, !tbaa !131
  %22 = icmp eq i64 %21, 4
  br i1 %22, label %25, label %23

23:                                               ; preds = %rb_enum_values_pack.exit
  %24 = call i64 @rb_funcallv(i64 noundef %21, i64 noundef 141, i32 noundef 1, ptr noundef nonnull %6) #14
  br label %28

25:                                               ; preds = %rb_enum_values_pack.exit
  %26 = load i64, ptr %.0.i.i, align 8, !tbaa !129
  %27 = call i64 @rb_funcallv(i64 noundef %26, i64 noundef 3457, i32 noundef 1, ptr noundef nonnull %6) #14
  br label %28

28:                                               ; preds = %25, %23
  %.0 = phi i64 [ %27, %25 ], [ %24, %23 ]
  %29 = and i64 %.0, -5
  %.not = icmp eq i64 %29, 0
  %30 = getelementptr inbounds nuw i8, ptr %.0.i.i, i64 16
  %31 = load i64, ptr %30, align 8, !tbaa !132
  %32 = icmp eq i64 %31, 4
  br i1 %.not, label %41, label %33

33:                                               ; preds = %28
  br i1 %32, label %38, label %34

34:                                               ; preds = %33
  %35 = getelementptr inbounds nuw i8, ptr %.0.i.i, i64 24
  %36 = load i64, ptr %35, align 8, !tbaa !133
  %37 = call i64 @rb_funcallv(i64 noundef %36, i64 noundef 136, i32 noundef 1, ptr noundef nonnull %30) #14
  br label %38

38:                                               ; preds = %34, %33
  %39 = load i64, ptr %6, align 8, !tbaa !7
  %40 = call i64 (i64, ...) @rb_ary_new_from_args(i64 noundef 1, i64 noundef %39) #14
  store i64 %40, ptr %30, align 8, !tbaa !132
  br label %47

41:                                               ; preds = %28
  %42 = load i64, ptr %6, align 8, !tbaa !7
  br i1 %32, label %43, label %45

43:                                               ; preds = %41
  %44 = call i64 (i64, ...) @rb_ary_new_from_args(i64 noundef 1, i64 noundef %42) #14
  store i64 %44, ptr %30, align 8, !tbaa !132
  br label %47

45:                                               ; preds = %41
  %46 = call i64 @rb_ary_push(i64 noundef %31, i64 noundef %42) #14
  br label %47

47:                                               ; preds = %43, %45, %38
  ret i64 4
}